; Function Attrs: mustprogress nofree norecurse nosync nounwind willreturn memory(readwrite, inaccessiblemem: none) uwtable
define internal range(i32 0, 9) i32 @ctrl_get_frame_flags(ptr nocapture noundef readonly %0, ptr nocapture noundef %1) #7 {
  %3 = load i32, ptr %1, align 8
  %4 = icmp ult i32 %3, 41
  br i1 %4, label %5, label %11

5:                                                ; preds = %2
  %6 = getelementptr inbounds nuw i8, ptr %1, i64 16
  %7 = load ptr, ptr %6, align 8
  %8 = zext nneg i32 %3 to i64
  %9 = getelementptr i8, ptr %7, i64 %8
  %10 = add nuw nsw i32 %3, 8
  store i32 %10, ptr %1, align 8
  br label %15

11:                                               ; preds = %2
  %12 = getelementptr inbounds nuw i8, ptr %1, i64 8
  %13 = load ptr, ptr %12, align 8
  %14 = getelementptr i8, ptr %13, i64 8
  store ptr %14, ptr %12, align 8
  br label %15

15:                                               ; preds = %11, %5
  %16 = phi ptr [ %9, %5 ], [ %13, %11 ]
  %17 = load ptr, ptr %16, align 8
  %18 = icmp eq ptr %17, null
  br i1 %18, label %41, label %19

19:                                               ; preds = %15
  %20 = getelementptr inbounds nuw i8, ptr %0, i64 27120
  %21 = load ptr, ptr %20, align 8
  %22 = icmp eq ptr %21, null
  br i1 %22, label %41, label %23

23:                                               ; preds = %19
  %24 = getelementptr inbounds nuw i8, ptr %21, i64 32
  %25 = load ptr, ptr %24, align 8
  %26 = load ptr, ptr %25, align 8
  store i32 0, ptr %17, align 4
  %27 = getelementptr inbounds nuw i8, ptr %26, i64 47968
  %28 = load i8, ptr %27, align 32
  switch i8 %28, label %35 [
    i8 0, label %29
    i8 2, label %33
    i8 3, label %34
  ]

29:                                               ; preds = %23
  store i32 17, ptr %17, align 4
  %30 = getelementptr inbounds i8, ptr %26, i64 48992
  %31 = load i32, ptr %30, align 32
  %.not = icmp eq i32 %31, 0
  %spec.store.select = select i1 %.not, i32 145, i32 17
  store i32 %spec.store.select, ptr %17, align 4
  %32 = or disjoint i32 %spec.store.select, 64
  br label %35

33:                                               ; preds = %23
  store i32 16, ptr %17, align 4
  br label %35

34:                                               ; preds = %23
  store i32 32, ptr %17, align 4
  br label %35

35:                                               ; preds = %29, %34, %33, %23
  %36 = phi i32 [ %32, %29 ], [ 96, %34 ], [ 80, %33 ], [ 64, %23 ]
  %37 = getelementptr inbounds i8, ptr %26, i64 49014
  %38 = load i8, ptr %37, align 2
  %39 = trunc i8 %38 to i1
  br i1 %39, label %40, label %41

40:                                               ; preds = %35
  store i32 %36, ptr %17, align 4
  br label %41

41:                                               ; preds = %35, %40, %19, %15
  %.0 = phi i32 [ 8, %15 ], [ 1, %19 ], [ 0, %40 ], [ 0, %35 ]
  ret i32 %.0
}